; Function Attrs: mustprogress uwtable
define hidden void @_ZN19OpenColorIO_v2_5dev25GetShaperToInputProcessorERKNS_5BakerE(ptr dead_on_unwind noalias writable sret(%"class.std::shared_ptr") align 8 %0, ptr noundef nonnull align 8 dereferenceable(8) %1) local_unnamed_addr #0 personality ptr @__gxx_personality_v0 {
  %3 = alloca %"class.std::shared_ptr.0", align 8
  %4 = alloca %"class.std::shared_ptr.3", align 8
  call void @llvm.lifetime.start.p0(i64 16, ptr nonnull %3) #13
  call void @llvm.lifetime.start.p0(i64 16, ptr nonnull %4) #13
  call void @_ZNK19OpenColorIO_v2_5dev5Baker9getConfigEv(ptr dead_on_unwind nonnull writable sret(%"class.std::shared_ptr.3") align 8 %4, ptr noundef nonnull align 8 dereferenceable(8) %1)
  %5 = load ptr, ptr %4, align 8, !tbaa !3
  %6 = invoke noundef ptr @_ZNK19OpenColorIO_v2_5dev5Baker14getShaperSpaceEv(ptr noundef nonnull align 8 dereferenceable(8) %1)
          to label %7 unwind label %59

7:                                                ; preds = %2
  %8 = invoke noundef ptr @_ZNK19OpenColorIO_v2_5dev5Baker13getInputSpaceEv(ptr noundef nonnull align 8 dereferenceable(8) %1)
          to label %9 unwind label %59

9:                                                ; preds = %7
  invoke void @_ZNK19OpenColorIO_v2_5dev6Config12getProcessorEPKcS2_(ptr dead_on_unwind nonnull writable sret(%"class.std::shared_ptr.0") align 8 %3, ptr noundef nonnull align 8 dereferenceable(8) %5, ptr noundef %6, ptr noundef %8)
          to label %10 unwind label %59

10:                                               ; preds = %9
  %11 = getelementptr inbounds nuw i8, ptr %4, i64 8
  %12 = load ptr, ptr %11, align 8, !tbaa !11
  %.not.i.i = icmp eq ptr %12, null
  br i1 %.not.i.i, label %_ZNSt12__shared_ptrIKN19OpenColorIO_v2_5dev6ConfigELN9__gnu_cxx12_Lock_policyE2EED2Ev.exit, label %13

13:                                               ; preds = %10
  %14 = getelementptr inbounds nuw i8, ptr %12, i64 8
  %15 = load atomic i64, ptr %14 acquire, align 8
  %16 = icmp eq i64 %15, 4294967297
  %17 = trunc i64 %15 to i32
  br i1 %16, label %18, label %26

18:                                               ; preds = %13
  store i32 0, ptr %14, align 8, !tbaa !12
  %19 = getelementptr inbounds nuw i8, ptr %12, i64 12
  store i32 0, ptr %19, align 4, !tbaa !15
  %20 = load ptr, ptr %12, align 8, !tbaa !16
  %21 = getelementptr inbounds nuw i8, ptr %20, i64 16
  %22 = load ptr, ptr %21, align 8
  call void %22(ptr noundef nonnull align 8 dereferenceable(16) %12) #13
  %23 = load ptr, ptr %12, align 8, !tbaa !16
  %24 = getelementptr inbounds nuw i8, ptr %23, i64 24
  %25 = load ptr, ptr %24, align 8
  call void %25(ptr noundef nonnull align 8 dereferenceable(16) %12) #13
  br label %_ZNSt12__shared_ptrIKN19OpenColorIO_v2_5dev6ConfigELN9__gnu_cxx12_Lock_policyE2EED2Ev.exit

26:                                               ; preds = %13
  %27 = load i8, ptr @__libc_single_threaded, align 1, !tbaa !18
  %.not.i.i.i = icmp eq i8 %27, 0
  br i1 %.not.i.i.i, label %30, label %28

28:                                               ; preds = %26
  %29 = add nsw i32 %17, -1
  store i32 %29, ptr %14, align 4, !tbaa !19
  br label %_ZN9__gnu_cxx27__exchange_and_add_dispatchEPii.exit.i.i.i

30:                                               ; preds = %26
  %31 = atomicrmw volatile add ptr %14, i32 -1 acq_rel, align 4
  br label %_ZN9__gnu_cxx27__exchange_and_add_dispatchEPii.exit.i.i.i

_ZN9__gnu_cxx27__exchange_and_add_dispatchEPii.exit.i.i.i: ; preds = %30, %28
  %.0.i.i.i.i = phi i32 [ %17, %28 ], [ %31, %30 ]
  %32 = icmp eq i32 %.0.i.i.i.i, 1
  br i1 %32, label %33, label %_ZNSt12__shared_ptrIKN19OpenColorIO_v2_5dev6ConfigELN9__gnu_cxx12_Lock_policyE2EED2Ev.exit, !prof !20

33:                                               ; preds = %_ZN9__gnu_cxx27__exchange_and_add_dispatchEPii.exit.i.i.i
  call void @_ZNSt16_Sp_counted_baseILN9__gnu_cxx12_Lock_policyE2EE24_M_release_last_use_coldEv(ptr noundef nonnull align 8 dereferenceable(16) %12) #13
  br label %_ZNSt12__shared_ptrIKN19OpenColorIO_v2_5dev6ConfigELN9__gnu_cxx12_Lock_policyE2EED2Ev.exit

_ZNSt12__shared_ptrIKN19OpenColorIO_v2_5dev6ConfigELN9__gnu_cxx12_Lock_policyE2EED2Ev.exit: ; preds = %10, %18, %_ZN9__gnu_cxx27__exchange_and_add_dispatchEPii.exit.i.i.i, %33
  call void @llvm.lifetime.end.p0(i64 16, ptr nonnull %4) #13
  %34 = load ptr, ptr %3, align 8, !tbaa !21
  invoke void @_ZNK19OpenColorIO_v2_5dev9Processor24getOptimizedCPUProcessorENS_17OptimizationFlagsE(ptr dead_on_unwind writable sret(%"class.std::shared_ptr") align 8 %0, ptr noundef nonnull align 8 dereferenceable(8) %34, i64 noundef 144457667)
          to label %35 unwind label %61

35:                                               ; preds = %_ZNSt12__shared_ptrIKN19OpenColorIO_v2_5dev6ConfigELN9__gnu_cxx12_Lock_policyE2EED2Ev.exit
  %36 = getelementptr inbounds nuw i8, ptr %3, i64 8
  %37 = load ptr, ptr %36, align 8, !tbaa !11
  %.not.i.i6 = icmp eq ptr %37, null
  br i1 %.not.i.i6, label %_ZNSt12__shared_ptrIKN19OpenColorIO_v2_5dev9ProcessorELN9__gnu_cxx12_Lock_policyE2EED2Ev.exit, label %38

38:                                               ; preds = %35
  %39 = getelementptr inbounds nuw i8, ptr %37, i64 8
  %40 = load atomic i64, ptr %39 acquire, align 8
  %41 = icmp eq i64 %40, 4294967297
  %42 = trunc i64 %40 to i32
  br i1 %41, label %43, label %51

43:                                               ; preds = %38
  store i32 0, ptr %39, align 8, !tbaa !12
  %44 = getelementptr inbounds nuw i8, ptr %37, i64 12
  store i32 0, ptr %44, align 4, !tbaa !15
  %45 = load ptr, ptr %37, align 8, !tbaa !16
  %46 = getelementptr inbounds nuw i8, ptr %45, i64 16
  %47 = load ptr, ptr %46, align 8
  call void %47(ptr noundef nonnull align 8 dereferenceable(16) %37) #13
  %48 = load ptr, ptr %37, align 8, !tbaa !16
  %49 = getelementptr inbounds nuw i8, ptr %48, i64 24
  %50 = load ptr, ptr %49, align 8
  call void %50(ptr noundef nonnull align 8 dereferenceable(16) %37) #13
  br label %_ZNSt12__shared_ptrIKN19OpenColorIO_v2_5dev9ProcessorELN9__gnu_cxx12_Lock_policyE2EED2Ev.exit

51:                                               ; preds = %38
  %52 = load i8, ptr @__libc_single_threaded, align 1, !tbaa !18
  %.not.i.i.i7 = icmp eq i8 %52, 0
  br i1 %.not.i.i.i7, label %55, label %53

53:                                               ; preds = %51
  %54 = add nsw i32 %42, -1
  store i32 %54, ptr %39, align 4, !tbaa !19
  br label %_ZN9__gnu_cxx27__exchange_and_add_dispatchEPii.exit.i.i.i8

55:                                               ; preds = %51
  %56 = atomicrmw volatile add ptr %39, i32 -1 acq_rel, align 4
  br label %_ZN9__gnu_cxx27__exchange_and_add_dispatchEPii.exit.i.i.i8

_ZN9__gnu_cxx27__exchange_and_add_dispatchEPii.exit.i.i.i8: ; preds = %55, %53
  %.0.i.i.i.i9 = phi i32 [ %42, %53 ], [ %56, %55 ]
  %57 = icmp eq i32 %.0.i.i.i.i9, 1
  br i1 %57, label %58, label %_ZNSt12__shared_ptrIKN19OpenColorIO_v2_5dev9ProcessorELN9__gnu_cxx12_Lock_policyE2EED2Ev.exit, !prof !20

58:                                               ; preds = %_ZN9__gnu_cxx27__exchange_and_add_dispatchEPii.exit.i.i.i8
  call void @_ZNSt16_Sp_counted_baseILN9__gnu_cxx12_Lock_policyE2EE24_M_release_last_use_coldEv(ptr noundef nonnull align 8 dereferenceable(16) %37) #13
  br label %_ZNSt12__shared_ptrIKN19OpenColorIO_v2_5dev9ProcessorELN9__gnu_cxx12_Lock_policyE2EED2Ev.exit

_ZNSt12__shared_ptrIKN19OpenColorIO_v2_5dev9ProcessorELN9__gnu_cxx12_Lock_policyE2EED2Ev.exit: ; preds = %35, %43, %_ZN9__gnu_cxx27__exchange_and_add_dispatchEPii.exit.i.i.i8, %58
  call void @llvm.lifetime.end.p0(i64 16, ptr nonnull %3) #13
  ret void

59:                                               ; preds = %9, %7, %2
  %60 = landingpad { ptr, i32 }
          cleanup
  call void @_ZNSt12__shared_ptrIKN19OpenColorIO_v2_5dev6ConfigELN9__gnu_cxx12_Lock_policyE2EED2Ev(ptr noundef nonnull align 8 dereferenceable(16) %4) #13
  call void @llvm.lifetime.end.p0(i64 16, ptr nonnull %4) #13
  br label %63

61:                                               ; preds = %_ZNSt12__shared_ptrIKN19OpenColorIO_v2_5dev6ConfigELN9__gnu_cxx12_Lock_policyE2EED2Ev.exit
  %62 = landingpad { ptr, i32 }
          cleanup
  call void @_ZNSt12__shared_ptrIKN19OpenColorIO_v2_5dev9ProcessorELN9__gnu_cxx12_Lock_policyE2EED2Ev(ptr noundef nonnull align 8 dereferenceable(16) %3) #13
  br label %63

63:                                               ; preds = %61, %59
  %.pn = phi { ptr, i32 } [ %62, %61 ], [ %60, %59 ]
  call void @llvm.lifetime.end.p0(i64 16, ptr nonnull %3) #13
  resume { ptr, i32 } %.pn
}